; Function Attrs: mustprogress uwtable
define hidden noundef ptr @_Z32pj_projection_specific_setup_qscP8PJconsts(ptr noundef %0) local_unnamed_addr #0 {
  %2 = tail call noalias dereferenceable_or_null(40) ptr @calloc(i64 noundef 1, i64 noundef 40) #7
  %3 = icmp eq ptr %2, null
  br i1 %3, label %4, label %6

4:                                                ; preds = %1
  %5 = tail call noundef ptr @_Z21pj_default_destructorP8PJconstsi(ptr noundef %0, i32 noundef 4096)
  br label %44

6:                                                ; preds = %1
  %7 = getelementptr inbounds nuw i8, ptr %0, i64 88
  store ptr %2, ptr %7, align 8, !tbaa !3
  %8 = getelementptr inbounds nuw i8, ptr %0, i64 112
  store ptr @_ZL13qsc_e_inverse5PJ_XYP8PJconsts, ptr %8, align 8, !tbaa !36
  %9 = getelementptr inbounds nuw i8, ptr %0, i64 104
  store ptr @_ZL13qsc_e_forward5PJ_LPP8PJconsts, ptr %9, align 8, !tbaa !37
  %10 = getelementptr inbounds nuw i8, ptr %0, i64 448
  %11 = load double, ptr %10, align 8, !tbaa !38
  %12 = fcmp ult double %11, 0x3FF2D97C7F3321D2
  br i1 %12, label %13, label %.sink.split

13:                                               ; preds = %6
  %14 = fcmp ugt double %11, 0xBFF2D97C7F3321D2
  br i1 %14, label %15, label %.sink.split

15:                                               ; preds = %13
  %16 = getelementptr inbounds nuw i8, ptr %0, i64 440
  %17 = load double, ptr %16, align 8, !tbaa !39
  %18 = tail call double @llvm.fabs.f64(double %17)
  %19 = fcmp ugt double %18, 0x3FE921FB54442D18
  br i1 %19, label %20, label %25

20:                                               ; preds = %15
  %21 = fcmp ugt double %18, 0x4002D97C7F3321D2
  br i1 %21, label %.sink.split, label %22

22:                                               ; preds = %20
  %23 = fcmp ogt double %17, 0.000000e+00
  %24 = select i1 %23, i32 1, i32 3
  br label %.sink.split

.sink.split:                                      ; preds = %20, %13, %6, %22
  %.sink = phi i32 [ %24, %22 ], [ 4, %6 ], [ 5, %13 ], [ 2, %20 ]
  store i32 %.sink, ptr %2, align 8, !tbaa !40
  br label %25

25:                                               ; preds = %.sink.split, %15
  %26 = getelementptr inbounds nuw i8, ptr %0, i64 216
  %27 = load double, ptr %26, align 8, !tbaa !43
  %28 = fcmp une double %27, 0.000000e+00
  br i1 %28, label %29, label %44

29:                                               ; preds = %25
  %30 = getelementptr inbounds nuw i8, ptr %0, i64 168
  %31 = load double, ptr %30, align 8, !tbaa !44
  %32 = fmul double %31, %31
  %33 = getelementptr inbounds nuw i8, ptr %2, i64 8
  store double %32, ptr %33, align 8, !tbaa !45
  %34 = fsub double 1.000000e+00, %27
  %35 = tail call double @sqrt(double noundef %34) #8, !tbaa !46
  %36 = fmul double %31, %35
  %37 = getelementptr inbounds nuw i8, ptr %2, i64 16
  store double %36, ptr %37, align 8, !tbaa !47
  %38 = fsub double %31, %36
  %39 = fdiv double %38, %31
  %40 = fsub double 1.000000e+00, %39
  %41 = getelementptr inbounds nuw i8, ptr %2, i64 24
  store double %40, ptr %41, align 8, !tbaa !48
  %42 = fmul double %40, %40
  %43 = getelementptr inbounds nuw i8, ptr %2, i64 32
  store double %42, ptr %43, align 8, !tbaa !49
  br label %44

44:                                               ; preds = %25, %29, %4
  %.0 = phi ptr [ %5, %4 ], [ %0, %29 ], [ %0, %25 ]
  ret ptr %.0
}